(dp0
S'Cookie'
p1
S'cookie=YLZUGs; path=/, vid=1; path=/, sa_pref=293184; expires=Fri, 08-Nov-2024 16:38:14 GMT; path=/, storyStyle=deleted; expires=Thu, 01-Jan-1970 00:00:01 GMT; path=/, stst=1; path=/, Gsize=deleted; expires=Thu, 01-Jan-1970 00:00:01 GMT; path=/, small=auto; path=/, sidp=deleted; expires=Thu, 01-Jan-1970 00:00:01 GMT; path=/, so_rev_cookie=deleted; expires=Thu, 01-Jan-1970 00:00:01 GMT; path=/, n_session=1385523839; path=/, sa_pref=293184; expires=Fri, 08-Nov-2024 16:38:14 GMT; path=/, exOptIn=7; path=/'
p2
s.